target datalayout = "e-m:e-p270:32:32-p271:32:32-p272:64:64-i64:64-i128:128-f80:128-n8:16:32:64-S128"
target triple = "x86_64-pc-linux-gnu"

%"class.icu_77::UObject" = type { ptr }
%"class.icu_77::Calendar" = type <{ %"class.icu_77::UObject", [24 x i32], [24 x i8], i8, [7 x i8], double, ptr, i8, i16, i8, i32, i32, i32, i8, i8, i16, [4 x i8], ptr, ptr }>

; Function Attrs: mustprogress nounwind uwtable
define noundef zeroext i8 @_ZNK6icu_778Calendar25getMinimalDaysInFirstWeekEv(ptr noundef nonnull align 8 dereferenceable(192) %0) #0 align 2 {
  %2 = alloca ptr, align 8
  store ptr %0, ptr %2, align 8, !tbaa !37
  %3 = load ptr, ptr %2, align 8
  %4 = getelementptr inbounds nuw %"class.icu_77::Calendar", ptr %3, i32 0, i32 9
  %5 = load i8, ptr %4, align 1, !tbaa !67
  ret i8 %5
}

; Function Attrs: mustprogress nounwind uwtable
define noundef i32 @_ZNK6icu_778Calendar17getFirstDayOfWeekEv(ptr noundef nonnull align 8 dereferenceable(192) %0) #0 align 2 {
  %2 = alloca ptr, align 8
  store ptr %0, ptr %2, align 8, !tbaa !37
  %3 = load ptr, ptr %2, align 8
  %4 = getelementptr inbounds nuw %"class.icu_77::Calendar", ptr %3, i32 0, i32 8
  %5 = load i16, ptr %4, align 1
  %6 = lshr i16 %5, 3
  %7 = and i16 %6, 15
  %8 = zext i16 %7 to i32
  ret i32 %8
}

; Function Attrs: mustprogress uwtable
define noundef i32 @_ZN6icu_778Calendar10weekNumberEiii(ptr noundef nonnull align 8 dereferenceable(192) %0, i32 noundef %1, i32 noundef %2, i32 noundef %3) #1 align 2 {
  %5 = alloca ptr, align 8
  %6 = alloca i32, align 4
  %7 = alloca i32, align 4
  %8 = alloca i32, align 4
  %9 = alloca i32, align 4
  %10 = alloca i32, align 4
  store ptr %0, ptr %5, align 8, !tbaa !37
  store i32 %1, ptr %6, align 4, !tbaa !14
  store i32 %2, ptr %7, align 4, !tbaa !14
  store i32 %3, ptr %8, align 4, !tbaa !14
  %11 = load ptr, ptr %5, align 8
  call void @llvm.lifetime.start.p0(i64 4, ptr %9) #16
  %12 = load i32, ptr %8, align 4, !tbaa !14
  %13 = call noundef i32 @_ZNK6icu_778Calendar17getFirstDayOfWeekEv(ptr noundef nonnull align 8 dereferenceable(192) %11)
  %14 = sub nsw i32 %12, %13
  %15 = load i32, ptr %7, align 4, !tbaa !14
  %16 = sub nsw i32 %14, %15
  %17 = add nsw i32 %16, 1
  %18 = srem i32 %17, 7
  store i32 %18, ptr %9, align 4, !tbaa !14
  %19 = load i32, ptr %9, align 4, !tbaa !14
  %20 = icmp slt i32 %19, 0
  br i1 %20, label %21, label %24

21:                                               ; preds = %4
  %22 = load i32, ptr %9, align 4, !tbaa !14
  %23 = add nsw i32 %22, 7
  store i32 %23, ptr %9, align 4, !tbaa !14
  br label %24

24:                                               ; preds = %21, %4
  call void @llvm.lifetime.start.p0(i64 4, ptr %10) #16
  %25 = load i32, ptr %6, align 4, !tbaa !14
  %26 = load i32, ptr %9, align 4, !tbaa !14
  %27 = add nsw i32 %25, %26
  %28 = sub nsw i32 %27, 1
  %29 = sdiv i32 %28, 7
  store i32 %29, ptr %10, align 4, !tbaa !14
  %30 = load i32, ptr %9, align 4, !tbaa !14
  %31 = sub nsw i32 7, %30
  %32 = call noundef zeroext i8 @_ZNK6icu_778Calendar25getMinimalDaysInFirstWeekEv(ptr noundef nonnull align 8 dereferenceable(192) %11)
  %33 = zext i8 %32 to i32
  %34 = icmp sge i32 %31, %33
  br i1 %34, label %35, label %38

35:                                               ; preds = %24
  %36 = load i32, ptr %10, align 4, !tbaa !14
  %37 = add nsw i32 %36, 1
  store i32 %37, ptr %10, align 4, !tbaa !14
  br label %38

38:                                               ; preds = %35, %24
  %39 = load i32, ptr %10, align 4, !tbaa !14
  call void @llvm.lifetime.end.p0(i64 4, ptr %10) #16
  call void @llvm.lifetime.end.p0(i64 4, ptr %9) #16
  ret i32 %39
}