; Function Attrs: mustprogress nofree norecurse nosync nounwind willreturn memory(argmem: read) uwtable
define noundef range(i32 -306783378, 306783380) i32 @_ZN6icu_778Calendar10weekNumberEiii(ptr noundef nonnull readonly align 8 captures(none) dereferenceable(192) %0, i32 noundef %1, i32 noundef %2, i32 noundef %3) local_unnamed_addr #18 align 2 {
  %5 = getelementptr inbounds nuw i8, ptr %0, i64 153
  %6 = load i16, ptr %5, align 1
  %7 = lshr i16 %6, 3
  %8 = and i16 %7, 15
  %9 = zext nneg i16 %8 to i32
  %10 = add i32 %3, 1
  %11 = add i32 %2, %9
  %12 = sub i32 %10, %11
  %13 = srem i32 %12, 7
  %14 = icmp slt i32 %13, 0
  %15 = add nsw i32 %13, 7
  %spec.select = select i1 %14, i32 %15, i32 %13
  %16 = add i32 %1, -1
  %17 = add i32 %16, %spec.select
  %18 = sdiv i32 %17, 7
  %19 = sub nsw i32 7, %spec.select
  %20 = getelementptr inbounds nuw i8, ptr %0, i64 155
  %21 = load i8, ptr %20, align 1, !tbaa !27
  %22 = zext i8 %21 to i32
  %.not = icmp sge i32 %19, %22
  %23 = zext i1 %.not to i32
  %.0 = add nsw i32 %18, %23
  ret i32 %.0
}